; Function Attrs: mustprogress nounwind uwtable
define hidden void @_ZN15ClassListWriter5writeEPK13InstanceKlassPK15ClassFileStream(ptr noundef %0, ptr noundef %1) local_unnamed_addr #0 align 2 {
  %3 = load ptr, ptr @_ZN11ClassLoader10_jrt_entryE, align 8
  %.not = icmp eq ptr %3, null
  br i1 %.not, label %4, label %8

4:                                                ; preds = %2
  %5 = load volatile ptr, ptr getelementptr inbounds (i8, ptr @_ZN16LogTagSetMappingILN6LogTag4typeE14ELS1_0ELS1_0ELS1_0ELS1_0ELS1_0EE7_tagsetE, i64 72), align 8
  %.not3 = icmp eq ptr %5, null
  br i1 %.not3, label %7, label %6

6:                                                ; preds = %4
  tail call void (ptr, ...) @_ZN7LogImplILN6LogTag4typeE14ELS1_0ELS1_0ELS1_0ELS1_0ELS1_0EE5writeILN8LogLevel4typeE4EEEvPKcz(ptr noundef nonnull @.str.7)
  br label %7

7:                                                ; preds = %4, %6
  store ptr null, ptr @DumpLoadedClassList, align 8
  br label %_ZN15ClassListWriterD2Ev.exit

8:                                                ; preds = %2
  %9 = load ptr, ptr @ClassListFile_lock, align 8
  %.not.i.i.i = icmp eq ptr %9, null
  br i1 %.not.i.i.i, label %_ZN15ClassListWriterC2Ev.exit.thread, label %11

_ZN15ClassListWriterC2Ev.exit.thread:             ; preds = %8
  %10 = load ptr, ptr @_ZN15ClassListWriter15_classlist_fileE, align 8
  tail call void @_ZN15ClassListWriter15write_to_streamEPK13InstanceKlassP12outputStreamPK15ClassFileStream(ptr noundef %0, ptr noundef %10, ptr noundef %1)
  br label %_ZN15ClassListWriterD2Ev.exit

11:                                               ; preds = %8
  %12 = tail call align 8 ptr @llvm.threadlocal.address.p0(ptr align 8 @_ZN6Thread12_thr_currentE)
  %13 = load ptr, ptr %12, align 8
  tail call void @_ZN5Mutex28lock_without_safepoint_checkEP6Thread(ptr noundef nonnull align 8 dereferenceable(104) %9, ptr noundef %13) #11
  %14 = load ptr, ptr @_ZN15ClassListWriter15_classlist_fileE, align 8
  tail call void @_ZN15ClassListWriter15write_to_streamEPK13InstanceKlassP12outputStreamPK15ClassFileStream(ptr noundef %0, ptr noundef %14, ptr noundef %1)
  tail call void @_ZN5Mutex6unlockEv(ptr noundef nonnull align 8 dereferenceable(104) %9) #11
  br label %_ZN15ClassListWriterD2Ev.exit

_ZN15ClassListWriterD2Ev.exit:                    ; preds = %11, %_ZN15ClassListWriterC2Ev.exit.thread, %7
  ret void
}